target datalayout = "e-m:e-p270:32:32-p271:32:32-p272:64:64-i64:64-i128:128-f80:128-n8:16:32:64-S128"
target triple = "x86_64-pc-linux-gnu"

%struct.AV1Common = type { %struct.CurrentFrame, %struct.aom_internal_error_info, i32, i32, i32, i32, i32, i32, i8, i8, [33 x i32], i32, ptr, ptr, [8 x i32], %struct.scale_factors, [8 x %struct.scale_factors], [8 x ptr], i32, i32, i32, %struct.FeatureFlags, %struct.CommonModeInfoParams, %struct.CommonQuantParams, %struct.segmentation, ptr, [8 x i8], %struct.loop_filter_info_n, %struct.loopfilter, [3 x %struct.RestorationInfo], ptr, ptr, %struct.yv12_buffer_config, %struct.CdefInfo, %struct.aom_film_grain_t, %struct.DeltaQInfo, [8 x %struct.WarpedMotionParams], %struct.SequenceHeader, ptr, ptr, %struct.CommonTileParams, ptr, %struct.CommonContexts, i32, [8 x i32], ptr, i32, [8 x i32], [8 x i8], i32, i32, i32, i32 }
%struct.CurrentFrame = type { i8, i8, i32, i32, i32, %struct.SkipModeInfo, i32, i32 }
%struct.SkipModeInfo = type { i32, i32, i32, i32 }
%struct.aom_internal_error_info = type { i32, i32, [200 x i8], i32, [1 x %struct.__jmp_buf_tag] }
%struct.__jmp_buf_tag = type { [8 x i64], i32, %struct.__sigset_t }
%struct.__sigset_t = type { [16 x i64] }
%struct.scale_factors = type { i32, i32, i32, i32, ptr, ptr }
%struct.FeatureFlags = type { i8, i8, i8, i8, i8, i8, i8, i8, i8, i8, i8, i8, i8, i8, i32, i32, i8 }
%struct.CommonModeInfoParams = type { i32, i32, i32, i32, i32, ptr, i32, i32, i8, ptr, i32, i32, ptr, ptr, ptr, ptr }
%struct.CommonQuantParams = type { i32, i32, i32, i32, i32, i32, [8 x [2 x i16]], [8 x [2 x i16]], [8 x [2 x i16]], [16 x [3 x [19 x ptr]]], [16 x [3 x [19 x ptr]]], [8 x [19 x ptr]], [8 x [19 x ptr]], [8 x [19 x ptr]], i8, i32, i32, i32 }
%struct.segmentation = type { i8, i8, i8, i8, [8 x [8 x i16]], [8 x i32], i32, i8 }
%struct.loop_filter_info_n = type { [64 x %struct.loop_filter_thresh], [3 x [8 x [2 x [8 x [2 x i8]]]]] }
%struct.loop_filter_thresh = type { [16 x i8], [16 x i8], [16 x i8] }
%struct.loopfilter = type { [2 x i32], i32, i32, i32, i8, i8, [8 x i8], [2 x i8], i32 }
%struct.RestorationInfo = type { i32, i32, i32, i32, i32, ptr, %struct.RestorationStripeBoundaries, i32 }
%struct.RestorationStripeBoundaries = type { ptr, ptr, i32, i32 }
%struct.yv12_buffer_config = type { %union.anon, %union.anon.0, %union.anon.2, %union.anon.4, %union.anon.6, %union.anon.8, i32, [3 x ptr], ptr, i32, ptr, i64, i32, i64, i32, i32, i32, i32, i32, i32, i8, i32, i32, i32, i32, i32, i32, ptr }
%union.anon = type { %struct.anon }
%struct.anon = type { i32, i32 }
%union.anon.0 = type { %struct.anon.1 }
%struct.anon.1 = type { i32, i32 }
%union.anon.2 = type { %struct.anon.3 }
%struct.anon.3 = type { i32, i32 }
%union.anon.4 = type { %struct.anon.5 }
%struct.anon.5 = type { i32, i32 }
%union.anon.6 = type { %struct.anon.7 }
%struct.anon.7 = type { i32, i32 }
%union.anon.8 = type { %struct.anon.9 }
%struct.anon.9 = type { ptr, ptr, ptr }
%struct.CdefInfo = type { i32, i32, [16 x i32], [16 x i32], i32 }
%struct.aom_film_grain_t = type { i32, i32, [14 x [2 x i32]], i32, [10 x [2 x i32]], i32, [10 x [2 x i32]], i32, i32, i32, [24 x i32], [25 x i32], [25 x i32], i32, i32, i32, i32, i32, i32, i32, i32, i32, i32, i32, i32, i16 }
%struct.DeltaQInfo = type { i32, i32, i32, i32, i32 }
%struct.WarpedMotionParams = type { [8 x i32], i16, i16, i16, i16, i8, i8 }
%struct.SequenceHeader = type { i32, i32, i32, i32, i8, i32, i32, i8, i32, i32, %struct.OrderHintInfo, i8, i8, i8, i8, i8, i8, i8, i8, i8, i8, i8, i8, i8, i8, i32, i8, i8, i32, i32, i32, i32, i32, i32, i32, i8, i8, i32, [32 x i32], i32, %struct.aom_timing, i8, %struct.aom_dec_model_info, i8, [32 x i8], [32 x i8], [33 x %struct.aom_dec_model_op_parameters] }
%struct.OrderHintInfo = type { i32, i32, i32, i32 }
%struct.aom_timing = type { i32, i32, i32, i32 }
%struct.aom_dec_model_info = type { i32, i32, i32, i32 }
%struct.aom_dec_model_op_parameters = type { i32, i64, i64, i32, i32, i32, i32, i32 }
%struct.CommonTileParams = type { i32, i32, i32, i32, i32, i32, i32, i32, i32, i32, i32, i32, i32, i32, i32, [65 x i32], [65 x i32], i32, i32 }
%struct.CommonContexts = type { ptr, [3 x ptr], ptr, i32, i32, i32 }

; Function Attrs: nounwind uwtable
define internal i32 @tile_log2(i32 noundef %0, i32 noundef %1) #0 {
  %3 = alloca i32, align 4
  %4 = alloca i32, align 4
  %5 = alloca i32, align 4
  store i32 %0, ptr %3, align 4
  store i32 %1, ptr %4, align 4
  store i32 0, ptr %5, align 4
  br label %6

6:                                                ; preds = %13, %2
  %7 = load i32, ptr %3, align 4
  %8 = load i32, ptr %5, align 4
  %9 = shl i32 %7, %8
  %10 = load i32, ptr %4, align 4
  %11 = icmp slt i32 %9, %10
  br i1 %11, label %12, label %16

12:                                               ; preds = %6
  br label %13

13:                                               ; preds = %12
  %14 = load i32, ptr %5, align 4
  %15 = add nsw i32 %14, 1
  store i32 %15, ptr %5, align 4
  br label %6, !llvm.loop !4

16:                                               ; preds = %6
  %17 = load i32, ptr %5, align 4
  ret i32 %17
}

; Function Attrs: nounwind uwtable
define hidden void @av1_get_tile_limits(ptr noundef %0) #0 {
  %2 = alloca ptr, align 8
  %3 = alloca ptr, align 8
  %4 = alloca ptr, align 8
  %5 = alloca i32, align 4
  %6 = alloca i32, align 4
  %7 = alloca i32, align 4
  %8 = alloca i32, align 4
  %9 = alloca i32, align 4
  %10 = alloca i32, align 4
  store ptr %0, ptr %2, align 8
  %11 = load ptr, ptr %2, align 8
  %12 = getelementptr inbounds nuw %struct.AV1Common, ptr %11, i32 0, i32 37
  store ptr %12, ptr %3, align 8
  %13 = load ptr, ptr %2, align 8
  %14 = getelementptr inbounds nuw %struct.AV1Common, ptr %13, i32 0, i32 40
  store ptr %14, ptr %4, align 8
  %15 = load ptr, ptr %2, align 8
  %16 = getelementptr inbounds nuw %struct.AV1Common, ptr %15, i32 0, i32 22
  %17 = getelementptr inbounds nuw %struct.CommonModeInfoParams, ptr %16, i32 0, i32 4
  %18 = load i32, ptr %17, align 8
  %19 = load ptr, ptr %3, align 8
  %20 = getelementptr inbounds nuw %struct.SequenceHeader, ptr %19, i32 0, i32 9
  %21 = load i32, ptr %20, align 4
  %22 = shl i32 1, %21
  %23 = sub nsw i32 %22, 1
  %24 = add nsw i32 %18, %23
  %25 = load ptr, ptr %3, align 8
  %26 = getelementptr inbounds nuw %struct.SequenceHeader, ptr %25, i32 0, i32 9
  %27 = load i32, ptr %26, align 4
  %28 = shl i32 1, %27
  %29 = sub nsw i32 %28, 1
  %30 = xor i32 %29, -1
  %31 = and i32 %24, %30
  store i32 %31, ptr %5, align 4
  %32 = load ptr, ptr %2, align 8
  %33 = getelementptr inbounds nuw %struct.AV1Common, ptr %32, i32 0, i32 22
  %34 = getelementptr inbounds nuw %struct.CommonModeInfoParams, ptr %33, i32 0, i32 3
  %35 = load i32, ptr %34, align 4
  %36 = load ptr, ptr %3, align 8
  %37 = getelementptr inbounds nuw %struct.SequenceHeader, ptr %36, i32 0, i32 9
  %38 = load i32, ptr %37, align 4
  %39 = shl i32 1, %38
  %40 = sub nsw i32 %39, 1
  %41 = add nsw i32 %35, %40
  %42 = load ptr, ptr %3, align 8
  %43 = getelementptr inbounds nuw %struct.SequenceHeader, ptr %42, i32 0, i32 9
  %44 = load i32, ptr %43, align 4
  %45 = shl i32 1, %44
  %46 = sub nsw i32 %45, 1
  %47 = xor i32 %46, -1
  %48 = and i32 %41, %47
  store i32 %48, ptr %6, align 4
  %49 = load i32, ptr %5, align 4
  %50 = load ptr, ptr %3, align 8
  %51 = getelementptr inbounds nuw %struct.SequenceHeader, ptr %50, i32 0, i32 9
  %52 = load i32, ptr %51, align 4
  %53 = ashr i32 %49, %52
  store i32 %53, ptr %7, align 4
  %54 = load i32, ptr %6, align 4
  %55 = load ptr, ptr %3, align 8
  %56 = getelementptr inbounds nuw %struct.SequenceHeader, ptr %55, i32 0, i32 9
  %57 = load i32, ptr %56, align 4
  %58 = ashr i32 %54, %57
  store i32 %58, ptr %8, align 4
  %59 = load ptr, ptr %3, align 8
  %60 = getelementptr inbounds nuw %struct.SequenceHeader, ptr %59, i32 0, i32 9
  %61 = load i32, ptr %60, align 4
  %62 = add nsw i32 %61, 2
  store i32 %62, ptr %9, align 4
  %63 = load i32, ptr %9, align 4
  %64 = ashr i32 4096, %63
  %65 = load ptr, ptr %4, align 8
  %66 = getelementptr inbounds nuw %struct.CommonTileParams, ptr %65, i32 0, i32 2
  store i32 %64, ptr %66, align 4
  %67 = load i32, ptr %9, align 4
  %68 = mul nsw i32 2, %67
  %69 = ashr i32 9437184, %68
  store i32 %69, ptr %10, align 4
  %70 = load ptr, ptr %4, align 8
  %71 = getelementptr inbounds nuw %struct.CommonTileParams, ptr %70, i32 0, i32 2
  %72 = load i32, ptr %71, align 4
  %73 = load i32, ptr %7, align 4
  %74 = call i32 @tile_log2(i32 noundef %72, i32 noundef %73)
  %75 = load ptr, ptr %4, align 8
  %76 = getelementptr inbounds nuw %struct.CommonTileParams, ptr %75, i32 0, i32 10
  store i32 %74, ptr %76, align 4
  %77 = load i32, ptr %7, align 4
  %78 = icmp slt i32 %77, 64
  br i1 %78, label %79, label %81

79:                                               ; preds = %1
  %80 = load i32, ptr %7, align 4
  br label %82

81:                                               ; preds = %1
  br label %82

82:                                               ; preds = %81, %79
  %83 = phi i32 [ %80, %79 ], [ 64, %81 ]
  %84 = call i32 @tile_log2(i32 noundef 1, i32 noundef %83)
  %85 = load ptr, ptr %4, align 8
  %86 = getelementptr inbounds nuw %struct.CommonTileParams, ptr %85, i32 0, i32 12
  store i32 %84, ptr %86, align 4
  %87 = load i32, ptr %8, align 4
  %88 = icmp slt i32 %87, 64
  br i1 %88, label %89, label %91

89:                                               ; preds = %82
  %90 = load i32, ptr %8, align 4
  br label %92

91:                                               ; preds = %82
  br label %92

92:                                               ; preds = %91, %89
  %93 = phi i32 [ %90, %89 ], [ 64, %91 ]
  %94 = call i32 @tile_log2(i32 noundef 1, i32 noundef %93)
  %95 = load ptr, ptr %4, align 8
  %96 = getelementptr inbounds nuw %struct.CommonTileParams, ptr %95, i32 0, i32 13
  store i32 %94, ptr %96, align 4
  %97 = load i32, ptr %10, align 4
  %98 = load i32, ptr %7, align 4
  %99 = load i32, ptr %8, align 4
  %100 = mul nsw i32 %98, %99
  %101 = call i32 @tile_log2(i32 noundef %97, i32 noundef %100)
  %102 = load ptr, ptr %4, align 8
  %103 = getelementptr inbounds nuw %struct.CommonTileParams, ptr %102, i32 0, i32 14
  store i32 %101, ptr %103, align 4
  %104 = load ptr, ptr %4, align 8
  %105 = getelementptr inbounds nuw %struct.CommonTileParams, ptr %104, i32 0, i32 14
  %106 = load i32, ptr %105, align 4
  %107 = load ptr, ptr %4, align 8
  %108 = getelementptr inbounds nuw %struct.CommonTileParams, ptr %107, i32 0, i32 10
  %109 = load i32, ptr %108, align 4
  %110 = icmp sgt i32 %106, %109
  br i1 %110, label %111, label %115

111:                                              ; preds = %92
  %112 = load ptr, ptr %4, align 8
  %113 = getelementptr inbounds nuw %struct.CommonTileParams, ptr %112, i32 0, i32 14
  %114 = load i32, ptr %113, align 4
  br label %119

115:                                              ; preds = %92
  %116 = load ptr, ptr %4, align 8
  %117 = getelementptr inbounds nuw %struct.CommonTileParams, ptr %116, i32 0, i32 10
  %118 = load i32, ptr %117, align 4
  br label %119

119:                                              ; preds = %115, %111
  %120 = phi i32 [ %114, %111 ], [ %118, %115 ]
  %121 = load ptr, ptr %4, align 8
  %122 = getelementptr inbounds nuw %struct.CommonTileParams, ptr %121, i32 0, i32 14
  store i32 %120, ptr %122, align 4
  ret void
}