; Function Attrs: nofree norecurse nosync nounwind memory(argmem: readwrite) uwtable
define hidden void @av1_get_tile_limits(ptr nocapture noundef %0) local_unnamed_addr #1 {
  %2 = getelementptr inbounds i8, ptr %0, i64 1080
  %3 = load i32, ptr %2, align 8
  %4 = getelementptr inbounds i8, ptr %0, i64 25220
  %5 = load i32, ptr %4, align 4
  %notmask = shl nsw i32 -1, %5
  %6 = xor i32 %notmask, -1
  %7 = add nsw i32 %3, %6
  %8 = and i32 %7, %notmask
  %9 = getelementptr inbounds i8, ptr %0, i64 1076
  %10 = load i32, ptr %9, align 4
  %11 = add nsw i32 %10, %6
  %12 = ashr i32 %8, %5
  %13 = add nsw i32 %5, 2
  %14 = lshr i32 4096, %13
  %15 = getelementptr inbounds i8, ptr %0, i64 27144
  store i32 %14, ptr %15, align 4
  %16 = shl nsw i32 %13, 1
  br label %17

17:                                               ; preds = %17, %1
  %.0.i = phi i32 [ 0, %1 ], [ %20, %17 ]
  %18 = shl i32 %14, %.0.i
  %19 = icmp slt i32 %18, %12
  %20 = add nuw nsw i32 %.0.i, 1
  br i1 %19, label %17, label %tile_log2.exit, !llvm.loop !4

tile_log2.exit:                                   ; preds = %17
  %21 = and i32 %11, %notmask
  %22 = ashr i32 %21, %5
  %23 = getelementptr inbounds i8, ptr %0, i64 27176
  store i32 %.0.i, ptr %23, align 4
  %24 = tail call i32 @llvm.smin.i32(i32 %12, i32 64)
  br label %25

25:                                               ; preds = %25, %tile_log2.exit
  %.0.i34 = phi i32 [ 0, %tile_log2.exit ], [ %28, %25 ]
  %26 = shl nuw i32 1, %.0.i34
  %27 = icmp slt i32 %26, %24
  %28 = add nuw nsw i32 %.0.i34, 1
  br i1 %27, label %25, label %tile_log2.exit35, !llvm.loop !4

tile_log2.exit35:                                 ; preds = %25
  %29 = getelementptr inbounds i8, ptr %0, i64 27184
  store i32 %.0.i34, ptr %29, align 4
  %30 = tail call i32 @llvm.smin.i32(i32 %22, i32 64)
  br label %31

31:                                               ; preds = %31, %tile_log2.exit35
  %.0.i36 = phi i32 [ 0, %tile_log2.exit35 ], [ %34, %31 ]
  %32 = shl nuw i32 1, %.0.i36
  %33 = icmp slt i32 %32, %30
  %34 = add nuw nsw i32 %.0.i36, 1
  br i1 %33, label %31, label %tile_log2.exit37, !llvm.loop !4

tile_log2.exit37:                                 ; preds = %31
  %35 = lshr i32 9437184, %16
  %36 = getelementptr inbounds i8, ptr %0, i64 27188
  store i32 %.0.i36, ptr %36, align 4
  %37 = mul nsw i32 %12, %22
  br label %38

38:                                               ; preds = %38, %tile_log2.exit37
  %.0.i38 = phi i32 [ 0, %tile_log2.exit37 ], [ %41, %38 ]
  %39 = shl i32 %35, %.0.i38
  %40 = icmp slt i32 %39, %37
  %41 = add nuw nsw i32 %.0.i38, 1
  br i1 %40, label %38, label %tile_log2.exit39, !llvm.loop !4

tile_log2.exit39:                                 ; preds = %38
  %42 = getelementptr inbounds i8, ptr %0, i64 27192
  %. = tail call i32 @llvm.umax.i32(i32 %.0.i38, i32 %.0.i)
  store i32 %., ptr %42, align 4
  ret void
}